; Function Attrs: nofree norecurse nosync nounwind memory(argmem: readwrite) uwtable
define internal void @bgr30leToUV_c(ptr noundef writeonly captures(none) %0, ptr noundef writeonly captures(none) %1, ptr readnone captures(none) %2, ptr noundef readonly captures(none) %3, ptr readnone captures(none) %4, i32 noundef %5, ptr noundef readonly captures(none) %6, ptr readnone captures(none) %7) #1 {
  %9 = getelementptr inbounds nuw i8, ptr %6, i64 12
  %10 = load i32, ptr %9, align 4, !tbaa !42
  %11 = shl nsw i32 %10, 4
  %12 = getelementptr inbounds nuw i8, ptr %6, i64 16
  %13 = load i32, ptr %12, align 4, !tbaa !42
  %14 = getelementptr inbounds nuw i8, ptr %6, i64 20
  %15 = load i32, ptr %14, align 4, !tbaa !42
  %16 = getelementptr inbounds nuw i8, ptr %6, i64 24
  %17 = load i32, ptr %16, align 4, !tbaa !42
  %18 = shl nsw i32 %17, 4
  %19 = getelementptr inbounds nuw i8, ptr %6, i64 28
  %20 = load i32, ptr %19, align 4, !tbaa !42
  %21 = getelementptr inbounds nuw i8, ptr %6, i64 32
  %22 = load i32, ptr %21, align 4, !tbaa !42
  %23 = icmp sgt i32 %5, 0
  br i1 %23, label %.lr.ph.preheader, label %rgb16_32ToUV_c_template.exit

.lr.ph.preheader:                                 ; preds = %8
  %wide.trip.count = zext nneg i32 %5 to i64
  br label %.lr.ph

.lr.ph:                                           ; preds = %.lr.ph.preheader, %.lr.ph
  %indvars.iv = phi i64 [ 0, %.lr.ph.preheader ], [ %indvars.iv.next, %.lr.ph ]
  %24 = shl nsw i64 %indvars.iv, 2
  %25 = getelementptr inbounds nuw i8, ptr %3, i64 %24
  %26 = load i32, ptr %25, align 1, !tbaa !34
  %27 = lshr i32 %26, 16
  %28 = and i32 %27, 16368
  %29 = lshr i32 %26, 6
  %30 = and i32 %29, 16368
  %31 = and i32 %26, 1023
  %32 = mul nsw i32 %11, %31
  %33 = mul nsw i32 %30, %13
  %34 = mul nsw i32 %28, %15
  %35 = add i32 %32, 268451840
  %36 = add i32 %35, %33
  %37 = add i32 %36, %34
  %38 = lshr i32 %37, 15
  %39 = trunc i32 %38 to i16
  %40 = getelementptr inbounds nuw i16, ptr %0, i64 %indvars.iv
  store i16 %39, ptr %40, align 2, !tbaa !43
  %41 = mul nsw i32 %18, %31
  %42 = mul nsw i32 %30, %20
  %43 = mul nsw i32 %28, %22
  %44 = add i32 %41, 268451840
  %45 = add i32 %44, %42
  %46 = add i32 %45, %43
  %47 = lshr i32 %46, 15
  %48 = trunc i32 %47 to i16
  %49 = getelementptr inbounds nuw i16, ptr %1, i64 %indvars.iv
  store i16 %48, ptr %49, align 2, !tbaa !43
  %indvars.iv.next = add nuw nsw i64 %indvars.iv, 1
  %exitcond.not = icmp eq i64 %indvars.iv.next, %wide.trip.count
  br i1 %exitcond.not, label %rgb16_32ToUV_c_template.exit, label %.lr.ph, !llvm.loop !86

rgb16_32ToUV_c_template.exit:                     ; preds = %.lr.ph, %8
  ret void
}